target datalayout = "e-m:e-p270:32:32-p271:32:32-p272:64:64-i64:64-i128:128-f80:128-n8:16:32:64-S128"
target triple = "x86_64-pc-linux-gnu"

@hf_swils_lsrh_lsr_type = internal global i32 0, align 4
@hf_swils_lsrh_lsid = internal global i32 0, align 4
@hf_swils_lsrh_adv_domid = internal global i32 0, align 4
@hf_swils_lsrh_ls_incid = internal global i32 0, align 4
@hf_swils_lsrh_lsr_age = internal global i32 0, align 4
@hf_swils_lsrh_options = internal global i32 0, align 4
@hf_swils_lsrh_checksum = internal global i32 0, align 4
@hf_swils_lsrh_lsr_length = internal global i32 0, align 4

; Function Attrs: nounwind uwtable
define internal void @dissect_swils_fspf_lsrechdr(ptr noundef %0, ptr noundef %1, i32 noundef %2) #0 {
  %4 = alloca ptr, align 8
  %5 = alloca ptr, align 8
  %6 = alloca i32, align 4
  store ptr %0, ptr %4, align 8
  store ptr %1, ptr %5, align 8
  store i32 %2, ptr %6, align 4
  %7 = load ptr, ptr %5, align 8
  %8 = load i32, ptr @hf_swils_lsrh_lsr_type, align 4
  %9 = load ptr, ptr %4, align 8
  %10 = load i32, ptr %6, align 4
  %11 = call ptr @proto_tree_add_item(ptr noundef %7, i32 noundef %8, ptr noundef %9, i32 noundef %10, i32 noundef 1, i32 noundef 0)
  %12 = load ptr, ptr %5, align 8
  %13 = load i32, ptr @hf_swils_lsrh_lsr_age, align 4
  %14 = load ptr, ptr %4, align 8
  %15 = load i32, ptr %6, align 4
  %16 = add i32 %15, 2
  %17 = call ptr @proto_tree_add_item(ptr noundef %12, i32 noundef %13, ptr noundef %14, i32 noundef %16, i32 noundef 2, i32 noundef 0)
  %18 = load ptr, ptr %5, align 8
  %19 = load i32, ptr @hf_swils_lsrh_options, align 4
  %20 = load ptr, ptr %4, align 8
  %21 = load i32, ptr %6, align 4
  %22 = add i32 %21, 4
  %23 = call ptr @proto_tree_add_item(ptr noundef %18, i32 noundef %19, ptr noundef %20, i32 noundef %22, i32 noundef 4, i32 noundef 0)
  %24 = load ptr, ptr %5, align 8
  %25 = load i32, ptr @hf_swils_lsrh_lsid, align 4
  %26 = load ptr, ptr %4, align 8
  %27 = load i32, ptr %6, align 4
  %28 = add i32 %27, 11
  %29 = call ptr @proto_tree_add_item(ptr noundef %24, i32 noundef %25, ptr noundef %26, i32 noundef %28, i32 noundef 1, i32 noundef 0)
  %30 = load ptr, ptr %5, align 8
  %31 = load i32, ptr @hf_swils_lsrh_adv_domid, align 4
  %32 = load ptr, ptr %4, align 8
  %33 = load i32, ptr %6, align 4
  %34 = add i32 %33, 15
  %35 = call ptr @proto_tree_add_item(ptr noundef %30, i32 noundef %31, ptr noundef %32, i32 noundef %34, i32 noundef 1, i32 noundef 0)
  %36 = load ptr, ptr %5, align 8
  %37 = load i32, ptr @hf_swils_lsrh_ls_incid, align 4
  %38 = load ptr, ptr %4, align 8
  %39 = load i32, ptr %6, align 4
  %40 = add i32 %39, 16
  %41 = call ptr @proto_tree_add_item(ptr noundef %36, i32 noundef %37, ptr noundef %38, i32 noundef %40, i32 noundef 4, i32 noundef 0)
  %42 = load ptr, ptr %5, align 8
  %43 = load ptr, ptr %4, align 8
  %44 = load i32, ptr %6, align 4
  %45 = add i32 %44, 20
  %46 = load i32, ptr @hf_swils_lsrh_checksum, align 4
  %47 = call ptr @proto_tree_add_checksum(ptr noundef %42, ptr noundef %43, i32 noundef %45, i32 noundef %46, i32 noundef -1, ptr noundef null, ptr noundef null, i32 noundef 0, i32 noundef 0, i32 noundef 0)
  %48 = load ptr, ptr %5, align 8
  %49 = load i32, ptr @hf_swils_lsrh_lsr_length, align 4
  %50 = load ptr, ptr %4, align 8
  %51 = load i32, ptr %6, align 4
  %52 = add i32 %51, 22
  %53 = call ptr @proto_tree_add_item(ptr noundef %48, i32 noundef %49, ptr noundef %50, i32 noundef %52, i32 noundef 2, i32 noundef 0)
  ret void
}