; Function Attrs: nounwind uwtable
define internal fastcc void @dissect_swils_fspf_lsrechdr(ptr noundef %0, ptr noundef %1, i32 noundef %2) unnamed_addr #0 {
  %4 = load i32, ptr @hf_swils_lsrh_lsr_type, align 4
  %5 = tail call ptr @proto_tree_add_item(ptr noundef %1, i32 noundef %4, ptr noundef %0, i32 noundef %2, i32 noundef 1, i32 noundef 0) #7
  %6 = load i32, ptr @hf_swils_lsrh_lsr_age, align 4
  %7 = add i32 %2, 2
  %8 = tail call ptr @proto_tree_add_item(ptr noundef %1, i32 noundef %6, ptr noundef %0, i32 noundef %7, i32 noundef 2, i32 noundef 0) #7
  %9 = load i32, ptr @hf_swils_lsrh_options, align 4
  %10 = add i32 %2, 4
  %11 = tail call ptr @proto_tree_add_item(ptr noundef %1, i32 noundef %9, ptr noundef %0, i32 noundef %10, i32 noundef 4, i32 noundef 0) #7
  %12 = load i32, ptr @hf_swils_lsrh_lsid, align 4
  %13 = add i32 %2, 11
  %14 = tail call ptr @proto_tree_add_item(ptr noundef %1, i32 noundef %12, ptr noundef %0, i32 noundef %13, i32 noundef 1, i32 noundef 0) #7
  %15 = load i32, ptr @hf_swils_lsrh_adv_domid, align 4
  %16 = add i32 %2, 15
  %17 = tail call ptr @proto_tree_add_item(ptr noundef %1, i32 noundef %15, ptr noundef %0, i32 noundef %16, i32 noundef 1, i32 noundef 0) #7
  %18 = load i32, ptr @hf_swils_lsrh_ls_incid, align 4
  %19 = add i32 %2, 16
  %20 = tail call ptr @proto_tree_add_item(ptr noundef %1, i32 noundef %18, ptr noundef %0, i32 noundef %19, i32 noundef 4, i32 noundef 0) #7
  %21 = add i32 %2, 20
  %22 = load i32, ptr @hf_swils_lsrh_checksum, align 4
  %23 = tail call ptr @proto_tree_add_checksum(ptr noundef %1, ptr noundef %0, i32 noundef %21, i32 noundef %22, i32 noundef -1, ptr noundef null, ptr noundef null, i32 noundef 0, i32 noundef 0, i32 noundef 0) #7
  %24 = load i32, ptr @hf_swils_lsrh_lsr_length, align 4
  %25 = add i32 %2, 22
  %26 = tail call ptr @proto_tree_add_item(ptr noundef %1, i32 noundef %24, ptr noundef %0, i32 noundef %25, i32 noundef 2, i32 noundef 0) #7
  ret void
}